; Function Attrs: mustprogress nofree norecurse nosync nounwind willreturn memory(read, inaccessiblemem: none) uwtable
define hidden noundef zeroext i1 @_ZN14PhaseIdealLoop27is_divisor_counted_loop_phiEPK4NodeS2_(ptr nocapture noundef readonly %0, ptr noundef readonly %1) local_unnamed_addr #2 align 2 {
  %3 = getelementptr inbounds i8, ptr %1, i64 44
  %4 = load i32, ptr %3, align 4
  %5 = and i32 %4, 511
  %6 = icmp eq i32 %5, 352
  br i1 %6, label %7, label %17

7:                                                ; preds = %2
  %8 = getelementptr inbounds i8, ptr %0, i64 44
  %9 = load i32, ptr %8, align 4
  %10 = and i32 %9, 15
  %11 = icmp eq i32 %10, 12
  br i1 %11, label %12, label %17

12:                                               ; preds = %7
  %13 = getelementptr inbounds i8, ptr %0, i64 8
  %14 = load ptr, ptr %13, align 8
  %15 = load ptr, ptr %14, align 8
  %16 = icmp eq ptr %15, %1
  br label %17

17:                                               ; preds = %12, %7, %2
  %18 = phi i1 [ false, %7 ], [ false, %2 ], [ %16, %12 ]
  ret i1 %18
}